target datalayout = "e-m:e-p270:32:32-p271:32:32-p272:64:64-i64:64-i128:128-f80:128-n8:16:32:64-S128"
target triple = "x86_64-pc-linux-gnu"

%struct.GVJ_s = type { ptr, ptr, ptr, ptr, ptr, ptr, i32, ptr, ptr, ptr, ptr, i64, i64, ptr, i32, %struct.gvplugin_active_render_s, %struct.gvplugin_active_device_s, %struct.gvplugin_active_loadimage_t, ptr, %struct.pointf_s, i8, ptr, i32, ptr, i8, ptr, i32, i32, i32, %struct.point, %struct.point, %struct.point, %struct.point, %struct.point, i32, %struct.boxf, %struct.pointf_s, %struct.boxf, %struct.boxf, %struct.pointf_s, %struct.pointf_s, double, i32, %struct.pointf_s, %struct.boxf, %struct.pointf_s, %struct.pointf_s, i32, i32, %struct.box, %struct.box, %struct.pointf_s, %struct.pointf_s, %struct.pointf_s, i8, i8, i8, i8, i8, i8, %struct.pointf_s, %struct.pointf_s, ptr, ptr, ptr, ptr, ptr, ptr, i64, ptr }
%struct.gvplugin_active_render_s = type { ptr, i32, ptr, ptr }
%struct.gvplugin_active_device_s = type { ptr, i32, ptr, ptr }
%struct.gvplugin_active_loadimage_t = type { ptr, i32, ptr }
%struct.point = type { i32, i32 }
%struct.boxf = type { %struct.pointf_s, %struct.pointf_s }
%struct.box = type { %struct.point, %struct.point }
%struct.pointf_s = type { double, double }
%struct.obj_state_s = type { ptr, i32, %union.anon, i32, %struct.color_s, %struct.color_s, %struct.color_s, i32, double, i32, i32, double, ptr, double, double, double, ptr, ptr, ptr, ptr, ptr, ptr, ptr, ptr, ptr, ptr, ptr, ptr, ptr, ptr, ptr, ptr, ptr, i16, i32, i64, ptr, i64, ptr, ptr, i32, ptr, i32, ptr }
%union.anon = type { ptr }
%struct.color_s = type { %union.anon.0, i32 }
%union.anon.0 = type { [4 x double] }
%struct.textlabel_t = type { ptr, ptr, ptr, i32, double, %struct.pointf_s, %struct.pointf_s, %struct.pointf_s, %union.anon.6, i8, i8, i8 }
%union.anon.6 = type { %struct.anon.7 }
%struct.anon.7 = type { ptr, i64 }

@stderr = external global ptr, align 8
@.str.41 = private unnamed_addr constant [49 x i8] c"out of memory when trying to allocate %zu bytes\0A\00", align 1
@.str.43 = private unnamed_addr constant [58 x i8] c"integer overflow when trying to allocate %zu * %zu bytes\0A\00", align 1

; Function Attrs: inlinehint nounwind uwtable
define internal ptr @gv_calloc(i64 noundef %0, i64 noundef %1) #3 {
  %3 = alloca i64, align 8
  %4 = alloca i64, align 8
  %5 = alloca ptr, align 8
  store i64 %0, ptr %3, align 8, !tbaa !49
  store i64 %1, ptr %4, align 8, !tbaa !49
  %6 = load i64, ptr %3, align 8, !tbaa !49
  %7 = icmp ugt i64 %6, 0
  br i1 %7, label %8, label %18

8:                                                ; preds = %2
  %9 = load i64, ptr %3, align 8, !tbaa !49
  %10 = udiv i64 -1, %9
  %11 = load i64, ptr %4, align 8, !tbaa !49
  %12 = icmp ult i64 %10, %11
  br i1 %12, label %13, label %18

13:                                               ; preds = %8
  %14 = load ptr, ptr @stderr, align 8, !tbaa !68
  %15 = load i64, ptr %3, align 8, !tbaa !49
  %16 = load i64, ptr %4, align 8, !tbaa !49
  %17 = call i32 (ptr, ptr, ...) @fprintf(ptr noundef %14, ptr noundef @.str.43, i64 noundef %15, i64 noundef %16) #15
  call void @graphviz_exit(i32 noundef 1) #17
  unreachable

18:                                               ; preds = %8, %2
  call void @llvm.lifetime.start.p0(i64 8, ptr %5) #15
  %19 = load i64, ptr %3, align 8, !tbaa !49
  %20 = load i64, ptr %4, align 8, !tbaa !49
  %21 = call noalias ptr @calloc(i64 noundef %19, i64 noundef %20) #18
  store ptr %21, ptr %5, align 8, !tbaa !8
  %22 = load i64, ptr %3, align 8, !tbaa !49
  %23 = icmp ugt i64 %22, 0
  br i1 %23, label %24, label %36

24:                                               ; preds = %18
  %25 = load i64, ptr %4, align 8, !tbaa !49
  %26 = icmp ugt i64 %25, 0
  br i1 %26, label %27, label %36

27:                                               ; preds = %24
  %28 = load ptr, ptr %5, align 8, !tbaa !8
  %29 = icmp eq ptr %28, null
  br i1 %29, label %30, label %36

30:                                               ; preds = %27
  %31 = load ptr, ptr @stderr, align 8, !tbaa !68
  %32 = load i64, ptr %3, align 8, !tbaa !49
  %33 = load i64, ptr %4, align 8, !tbaa !49
  %34 = mul i64 %32, %33
  %35 = call i32 (ptr, ptr, ...) @fprintf(ptr noundef %31, ptr noundef @.str.41, i64 noundef %34) #15
  call void @graphviz_exit(i32 noundef 1) #17
  unreachable

36:                                               ; preds = %27, %24, %18
  %37 = load ptr, ptr %5, align 8, !tbaa !8
  call void @llvm.lifetime.end.p0(i64 8, ptr %5) #15
  ret ptr %37
}

; Function Attrs: nounwind uwtable
define internal void @map_label(ptr noundef %0, ptr noundef %1) #0 {
  %3 = alloca ptr, align 8
  %4 = alloca ptr, align 8
  %5 = alloca ptr, align 8
  %6 = alloca i32, align 4
  %7 = alloca ptr, align 8
  store ptr %0, ptr %3, align 8, !tbaa !12
  store ptr %1, ptr %4, align 8, !tbaa !221
  call void @llvm.lifetime.start.p0(i64 8, ptr %5) #15
  %8 = load ptr, ptr %3, align 8, !tbaa !12
  %9 = getelementptr inbounds nuw %struct.GVJ_s, ptr %8, i32 0, i32 4
  %10 = load ptr, ptr %9, align 8, !tbaa !16
  store ptr %10, ptr %5, align 8, !tbaa !14
  call void @llvm.lifetime.start.p0(i64 4, ptr %6) #15
  %11 = load ptr, ptr %3, align 8, !tbaa !12
  %12 = getelementptr inbounds nuw %struct.GVJ_s, ptr %11, i32 0, i32 26
  %13 = load i32, ptr %12, align 8, !tbaa !66
  store i32 %13, ptr %6, align 4, !tbaa !44
  call void @llvm.lifetime.start.p0(i64 8, ptr %7) #15
  %14 = load i32, ptr %6, align 4, !tbaa !44
  %15 = and i32 %14, 4259840
  %16 = icmp ne i32 %15, 0
  br i1 %16, label %17, label %108

17:                                               ; preds = %2
  %18 = load i32, ptr %6, align 4, !tbaa !44
  %19 = and i32 %18, 131072
  %20 = icmp ne i32 %19, 0
  br i1 %20, label %21, label %26

21:                                               ; preds = %17
  %22 = load ptr, ptr %5, align 8, !tbaa !14
  %23 = getelementptr inbounds nuw %struct.obj_state_s, ptr %22, i32 0, i32 34
  store i32 0, ptr %23, align 4, !tbaa !136
  %24 = load ptr, ptr %5, align 8, !tbaa !14
  %25 = getelementptr inbounds nuw %struct.obj_state_s, ptr %24, i32 0, i32 35
  store i64 2, ptr %25, align 8, !tbaa !137
  br label %31

26:                                               ; preds = %17
  %27 = load ptr, ptr %5, align 8, !tbaa !14
  %28 = getelementptr inbounds nuw %struct.obj_state_s, ptr %27, i32 0, i32 34
  store i32 2, ptr %28, align 4, !tbaa !136
  %29 = load ptr, ptr %5, align 8, !tbaa !14
  %30 = getelementptr inbounds nuw %struct.obj_state_s, ptr %29, i32 0, i32 35
  store i64 4, ptr %30, align 8, !tbaa !137
  br label %31

31:                                               ; preds = %26, %21
  %32 = load ptr, ptr %5, align 8, !tbaa !14
  %33 = getelementptr inbounds nuw %struct.obj_state_s, ptr %32, i32 0, i32 36
  %34 = load ptr, ptr %33, align 8, !tbaa !63
  call void @free(ptr noundef %34) #15
  %35 = load ptr, ptr %5, align 8, !tbaa !14
  %36 = getelementptr inbounds nuw %struct.obj_state_s, ptr %35, i32 0, i32 35
  %37 = load i64, ptr %36, align 8, !tbaa !137
  %38 = call ptr @gv_calloc(i64 noundef %37, i64 noundef 16)
  store ptr %38, ptr %7, align 8, !tbaa !105
  %39 = load ptr, ptr %5, align 8, !tbaa !14
  %40 = getelementptr inbounds nuw %struct.obj_state_s, ptr %39, i32 0, i32 36
  store ptr %38, ptr %40, align 8, !tbaa !63
  %41 = load ptr, ptr %4, align 8, !tbaa !221
  %42 = getelementptr inbounds nuw %struct.textlabel_t, ptr %41, i32 0, i32 7
  %43 = getelementptr inbounds nuw %struct.pointf_s, ptr %42, i32 0, i32 0
  %44 = load double, ptr %43, align 8, !tbaa !516
  %45 = load ptr, ptr %4, align 8, !tbaa !221
  %46 = getelementptr inbounds nuw %struct.textlabel_t, ptr %45, i32 0, i32 5
  %47 = getelementptr inbounds nuw %struct.pointf_s, ptr %46, i32 0, i32 0
  %48 = load double, ptr %47, align 8, !tbaa !517
  %49 = fdiv double %48, 2.000000e+00
  %50 = fsub double %44, %49
  %51 = load ptr, ptr %7, align 8, !tbaa !105
  %52 = getelementptr inbounds %struct.pointf_s, ptr %51, i64 0
  %53 = getelementptr inbounds nuw %struct.pointf_s, ptr %52, i32 0, i32 0
  store double %50, ptr %53, align 8, !tbaa !110
  %54 = load ptr, ptr %4, align 8, !tbaa !221
  %55 = getelementptr inbounds nuw %struct.textlabel_t, ptr %54, i32 0, i32 7
  %56 = getelementptr inbounds nuw %struct.pointf_s, ptr %55, i32 0, i32 1
  %57 = load double, ptr %56, align 8, !tbaa !518
  %58 = load ptr, ptr %4, align 8, !tbaa !221
  %59 = getelementptr inbounds nuw %struct.textlabel_t, ptr %58, i32 0, i32 5
  %60 = getelementptr inbounds nuw %struct.pointf_s, ptr %59, i32 0, i32 1
  %61 = load double, ptr %60, align 8, !tbaa !519
  %62 = fdiv double %61, 2.000000e+00
  %63 = fsub double %57, %62
  %64 = load ptr, ptr %7, align 8, !tbaa !105
  %65 = getelementptr inbounds %struct.pointf_s, ptr %64, i64 0
  %66 = getelementptr inbounds nuw %struct.pointf_s, ptr %65, i32 0, i32 1
  store double %63, ptr %66, align 8, !tbaa !111
  %67 = load ptr, ptr %4, align 8, !tbaa !221
  %68 = getelementptr inbounds nuw %struct.textlabel_t, ptr %67, i32 0, i32 7
  %69 = getelementptr inbounds nuw %struct.pointf_s, ptr %68, i32 0, i32 0
  %70 = load double, ptr %69, align 8, !tbaa !516
  %71 = load ptr, ptr %4, align 8, !tbaa !221
  %72 = getelementptr inbounds nuw %struct.textlabel_t, ptr %71, i32 0, i32 5
  %73 = getelementptr inbounds nuw %struct.pointf_s, ptr %72, i32 0, i32 0
  %74 = load double, ptr %73, align 8, !tbaa !517
  %75 = fdiv double %74, 2.000000e+00
  %76 = fadd double %70, %75
  %77 = load ptr, ptr %7, align 8, !tbaa !105
  %78 = getelementptr inbounds %struct.pointf_s, ptr %77, i64 1
  %79 = getelementptr inbounds nuw %struct.pointf_s, ptr %78, i32 0, i32 0
  store double %76, ptr %79, align 8, !tbaa !110
  %80 = load ptr, ptr %4, align 8, !tbaa !221
  %81 = getelementptr inbounds nuw %struct.textlabel_t, ptr %80, i32 0, i32 7
  %82 = getelementptr inbounds nuw %struct.pointf_s, ptr %81, i32 0, i32 1
  %83 = load double, ptr %82, align 8, !tbaa !518
  %84 = load ptr, ptr %4, align 8, !tbaa !221
  %85 = getelementptr inbounds nuw %struct.textlabel_t, ptr %84, i32 0, i32 5
  %86 = getelementptr inbounds nuw %struct.pointf_s, ptr %85, i32 0, i32 1
  %87 = load double, ptr %86, align 8, !tbaa !519
  %88 = fdiv double %87, 2.000000e+00
  %89 = fadd double %83, %88
  %90 = load ptr, ptr %7, align 8, !tbaa !105
  %91 = getelementptr inbounds %struct.pointf_s, ptr %90, i64 1
  %92 = getelementptr inbounds nuw %struct.pointf_s, ptr %91, i32 0, i32 1
  store double %89, ptr %92, align 8, !tbaa !111
  %93 = load i32, ptr %6, align 4, !tbaa !44
  %94 = and i32 %93, 8192
  %95 = icmp ne i32 %94, 0
  br i1 %95, label %101, label %96

96:                                               ; preds = %31
  %97 = load ptr, ptr %3, align 8, !tbaa !12
  %98 = load ptr, ptr %7, align 8, !tbaa !105
  %99 = load ptr, ptr %7, align 8, !tbaa !105
  %100 = call ptr @gvrender_ptf_A(ptr noundef %97, ptr noundef %98, ptr noundef %99, i64 noundef 2)
  br label %101

101:                                              ; preds = %96, %31
  %102 = load i32, ptr %6, align 4, !tbaa !44
  %103 = and i32 %102, 131072
  %104 = icmp ne i32 %103, 0
  br i1 %104, label %107, label %105

105:                                              ; preds = %101
  %106 = load ptr, ptr %7, align 8, !tbaa !105
  call void @rect2poly(ptr noundef %106)
  br label %107

107:                                              ; preds = %105, %101
  br label %108

108:                                              ; preds = %107, %2
  call void @llvm.lifetime.end.p0(i64 8, ptr %7) #15
  call void @llvm.lifetime.end.p0(i64 4, ptr %6) #15
  call void @llvm.lifetime.end.p0(i64 8, ptr %5) #15
  ret void
}